target datalayout = "e-m:e-p270:32:32-p271:32:32-p272:64:64-i64:64-i128:128-f80:128-n8:16:32:64-S128"
target triple = "x86_64-pc-linux-gnu"

%struct.QualCost = type { double, double }
%struct.ForEachState = type { ptr, i32 }
%struct.List = type { i32, i32, i32, ptr, [0 x %union.ListCell] }
%union.ListCell = type { ptr }
%struct.cost_qual_eval_context = type { ptr, %struct.QualCost }
%struct.Node = type { i32 }
%struct.Expr = type { i32 }
%struct.SubPlan = type { %struct.Expr, i32, ptr, ptr, i32, ptr, i32, i32, i32, i8, i8, i8, ptr, ptr, ptr, double, double }
%struct.Plan = type { i32, i32, double, double, double, i32, i8, i8, i8, i32, ptr, ptr, ptr, ptr, ptr, ptr, ptr }

@cpu_operator_cost = dso_local global double 2.500000e-03, align 8

; Function Attrs: nounwind uwtable
define dso_local double @clamp_row_est(double noundef %0) #0 {
  %2 = alloca double, align 8
  store double %0, ptr %2, align 8
  %3 = load double, ptr %2, align 8
  %4 = fcmp ogt double %3, 1.000000e+100
  br i1 %4, label %8, label %5

5:                                                ; preds = %1
  %6 = load double, ptr %2, align 8
  %7 = call i1 @llvm.is.fpclass.f64(double %6, i32 3)
  br i1 %7, label %8, label %9

8:                                                ; preds = %5, %1
  store double 1.000000e+100, ptr %2, align 8
  br label %17

9:                                                ; preds = %5
  %10 = load double, ptr %2, align 8
  %11 = fcmp ole double %10, 1.000000e+00
  br i1 %11, label %12, label %13

12:                                               ; preds = %9
  store double 1.000000e+00, ptr %2, align 8
  br label %16

13:                                               ; preds = %9
  %14 = load double, ptr %2, align 8
  %15 = call double @llvm.rint.f64(double %14)
  store double %15, ptr %2, align 8
  br label %16

16:                                               ; preds = %13, %12
  br label %17

17:                                               ; preds = %16, %8
  %18 = load double, ptr %2, align 8
  ret double %18
}

; Function Attrs: nounwind uwtable
define dso_local void @cost_qual_eval(ptr noundef %0, ptr noundef %1, ptr noundef %2) #0 {
  %4 = alloca ptr, align 8
  %5 = alloca ptr, align 8
  %6 = alloca ptr, align 8
  %7 = alloca %struct.cost_qual_eval_context, align 8
  %8 = alloca ptr, align 8
  %9 = alloca %struct.ForEachState, align 8
  %10 = alloca ptr, align 8
  store ptr %0, ptr %4, align 8
  store ptr %1, ptr %5, align 8
  store ptr %2, ptr %6, align 8
  call void @llvm.lifetime.start.p0(i64 24, ptr %7) #9
  call void @llvm.lifetime.start.p0(i64 8, ptr %8) #9
  %11 = load ptr, ptr %6, align 8
  %12 = getelementptr inbounds nuw %struct.cost_qual_eval_context, ptr %7, i32 0, i32 0
  store ptr %11, ptr %12, align 8
  %13 = getelementptr inbounds nuw %struct.cost_qual_eval_context, ptr %7, i32 0, i32 1
  %14 = getelementptr inbounds nuw %struct.QualCost, ptr %13, i32 0, i32 0
  store double 0.000000e+00, ptr %14, align 8
  %15 = getelementptr inbounds nuw %struct.cost_qual_eval_context, ptr %7, i32 0, i32 1
  %16 = getelementptr inbounds nuw %struct.QualCost, ptr %15, i32 0, i32 1
  store double 0.000000e+00, ptr %16, align 8
  call void @llvm.lifetime.start.p0(i64 16, ptr %9) #9
  %17 = getelementptr inbounds nuw %struct.ForEachState, ptr %9, i32 0, i32 0
  %18 = load ptr, ptr %5, align 8
  store ptr %18, ptr %17, align 8
  %19 = getelementptr inbounds nuw %struct.ForEachState, ptr %9, i32 0, i32 1
  store i32 0, ptr %19, align 8
  %20 = getelementptr i8, ptr %9, i64 12
  call void @llvm.memset.p0.i64(ptr align 4 %20, i8 0, i64 4, i1 false)
  br label %21

21:                                               ; preds = %52, %3
  %22 = getelementptr inbounds nuw %struct.ForEachState, ptr %9, i32 0, i32 0
  %23 = load ptr, ptr %22, align 8
  %24 = icmp ne ptr %23, null
  br i1 %24, label %25, label %42

25:                                               ; preds = %21
  %26 = getelementptr inbounds nuw %struct.ForEachState, ptr %9, i32 0, i32 1
  %27 = load i32, ptr %26, align 8
  %28 = getelementptr inbounds nuw %struct.ForEachState, ptr %9, i32 0, i32 0
  %29 = load ptr, ptr %28, align 8
  %30 = getelementptr inbounds nuw %struct.List, ptr %29, i32 0, i32 1
  %31 = load i32, ptr %30, align 4
  %32 = icmp slt i32 %27, %31
  br i1 %32, label %33, label %42

33:                                               ; preds = %25
  %34 = getelementptr inbounds nuw %struct.ForEachState, ptr %9, i32 0, i32 0
  %35 = load ptr, ptr %34, align 8
  %36 = getelementptr inbounds nuw %struct.List, ptr %35, i32 0, i32 3
  %37 = load ptr, ptr %36, align 8
  %38 = getelementptr inbounds nuw %struct.ForEachState, ptr %9, i32 0, i32 1
  %39 = load i32, ptr %38, align 8
  %40 = sext i32 %39 to i64
  %41 = getelementptr inbounds %union.ListCell, ptr %37, i64 %40
  store ptr %41, ptr %8, align 8
  br label %43

42:                                               ; preds = %25, %21
  store ptr null, ptr %8, align 8
  br label %43

43:                                               ; preds = %42, %33
  %44 = phi i32 [ 1, %33 ], [ 0, %42 ]
  %45 = icmp ne i32 %44, 0
  br i1 %45, label %47, label %46

46:                                               ; preds = %43
  call void @llvm.lifetime.end.p0(i64 16, ptr %9) #9
  br label %56

47:                                               ; preds = %43
  call void @llvm.lifetime.start.p0(i64 8, ptr %10) #9
  %48 = load ptr, ptr %8, align 8
  %49 = load ptr, ptr %48, align 8
  store ptr %49, ptr %10, align 8
  %50 = load ptr, ptr %10, align 8
  %51 = call zeroext i1 @cost_qual_eval_walker(ptr noundef %50, ptr noundef %7)
  call void @llvm.lifetime.end.p0(i64 8, ptr %10) #9
  br label %52

52:                                               ; preds = %47
  %53 = getelementptr inbounds nuw %struct.ForEachState, ptr %9, i32 0, i32 1
  %54 = load i32, ptr %53, align 8
  %55 = add i32 %54, 1
  store i32 %55, ptr %53, align 8
  br label %21, !llvm.loop !8

56:                                               ; preds = %46
  %57 = load ptr, ptr %4, align 8
  %58 = getelementptr inbounds nuw %struct.cost_qual_eval_context, ptr %7, i32 0, i32 1
  call void @llvm.memcpy.p0.p0.i64(ptr align 8 %57, ptr align 8 %58, i64 16, i1 false)
  call void @llvm.lifetime.end.p0(i64 8, ptr %8) #9
  call void @llvm.lifetime.end.p0(i64 24, ptr %7) #9
  ret void
}

; Function Attrs: nounwind uwtable
define dso_local void @cost_subplan(ptr noundef %0, ptr noundef %1, ptr noundef %2) #0 {
  %4 = alloca ptr, align 8
  %5 = alloca ptr, align 8
  %6 = alloca ptr, align 8
  %7 = alloca %struct.QualCost, align 8
  %8 = alloca double, align 8
  store ptr %0, ptr %4, align 8
  store ptr %1, ptr %5, align 8
  store ptr %2, ptr %6, align 8
  call void @llvm.lifetime.start.p0(i64 16, ptr %7) #9
  %9 = load ptr, ptr %5, align 8
  %10 = getelementptr inbounds nuw %struct.SubPlan, ptr %9, i32 0, i32 2
  %11 = load ptr, ptr %10, align 8
  %12 = call ptr @make_ands_implicit(ptr noundef %11)
  %13 = load ptr, ptr %4, align 8
  call void @cost_qual_eval(ptr noundef %7, ptr noundef %12, ptr noundef %13)
  %14 = load ptr, ptr %5, align 8
  %15 = getelementptr inbounds nuw %struct.SubPlan, ptr %14, i32 0, i32 9
  %16 = load i8, ptr %15, align 4, !range !4, !noundef !5
  %17 = trunc i8 %16 to i1
  br i1 %17, label %18, label %30

18:                                               ; preds = %3
  %19 = load ptr, ptr %6, align 8
  %20 = getelementptr inbounds nuw %struct.Plan, ptr %19, i32 0, i32 3
  %21 = load double, ptr %20, align 8
  %22 = load double, ptr @cpu_operator_cost, align 8
  %23 = load ptr, ptr %6, align 8
  %24 = getelementptr inbounds nuw %struct.Plan, ptr %23, i32 0, i32 4
  %25 = load double, ptr %24, align 8
  %26 = call double @llvm.fmuladd.f64(double %22, double %25, double %21)
  %27 = getelementptr inbounds nuw %struct.QualCost, ptr %7, i32 0, i32 0
  %28 = load double, ptr %27, align 8
  %29 = fadd double %28, %26
  store double %29, ptr %27, align 8
  br label %106

30:                                               ; preds = %3
  call void @llvm.lifetime.start.p0(i64 8, ptr %8) #9
  %31 = load ptr, ptr %6, align 8
  %32 = getelementptr inbounds nuw %struct.Plan, ptr %31, i32 0, i32 3
  %33 = load double, ptr %32, align 8
  %34 = load ptr, ptr %6, align 8
  %35 = getelementptr inbounds nuw %struct.Plan, ptr %34, i32 0, i32 2
  %36 = load double, ptr %35, align 8
  %37 = fsub double %33, %36
  store double %37, ptr %8, align 8
  %38 = load ptr, ptr %5, align 8
  %39 = getelementptr inbounds nuw %struct.SubPlan, ptr %38, i32 0, i32 1
  %40 = load i32, ptr %39, align 4
  %41 = icmp eq i32 %40, 0
  br i1 %41, label %42, label %52

42:                                               ; preds = %30
  %43 = load double, ptr %8, align 8
  %44 = load ptr, ptr %6, align 8
  %45 = getelementptr inbounds nuw %struct.Plan, ptr %44, i32 0, i32 4
  %46 = load double, ptr %45, align 8
  %47 = call double @clamp_row_est(double noundef %46)
  %48 = fdiv double %43, %47
  %49 = getelementptr inbounds nuw %struct.QualCost, ptr %7, i32 0, i32 1
  %50 = load double, ptr %49, align 8
  %51 = fadd double %50, %48
  store double %51, ptr %49, align 8
  br label %81

52:                                               ; preds = %30
  %53 = load ptr, ptr %5, align 8
  %54 = getelementptr inbounds nuw %struct.SubPlan, ptr %53, i32 0, i32 1
  %55 = load i32, ptr %54, align 4
  %56 = icmp eq i32 %55, 1
  br i1 %56, label %62, label %57

57:                                               ; preds = %52
  %58 = load ptr, ptr %5, align 8
  %59 = getelementptr inbounds nuw %struct.SubPlan, ptr %58, i32 0, i32 1
  %60 = load i32, ptr %59, align 4
  %61 = icmp eq i32 %60, 2
  br i1 %61, label %62, label %75

62:                                               ; preds = %57, %52
  %63 = load double, ptr %8, align 8
  %64 = getelementptr inbounds nuw %struct.QualCost, ptr %7, i32 0, i32 1
  %65 = load double, ptr %64, align 8
  %66 = call double @llvm.fmuladd.f64(double 5.000000e-01, double %63, double %65)
  store double %66, ptr %64, align 8
  %67 = load ptr, ptr %6, align 8
  %68 = getelementptr inbounds nuw %struct.Plan, ptr %67, i32 0, i32 4
  %69 = load double, ptr %68, align 8
  %70 = fmul double 5.000000e-01, %69
  %71 = load double, ptr @cpu_operator_cost, align 8
  %72 = getelementptr inbounds nuw %struct.QualCost, ptr %7, i32 0, i32 1
  %73 = load double, ptr %72, align 8
  %74 = call double @llvm.fmuladd.f64(double %70, double %71, double %73)
  store double %74, ptr %72, align 8
  br label %80

75:                                               ; preds = %57
  %76 = load double, ptr %8, align 8
  %77 = getelementptr inbounds nuw %struct.QualCost, ptr %7, i32 0, i32 1
  %78 = load double, ptr %77, align 8
  %79 = fadd double %78, %76
  store double %79, ptr %77, align 8
  br label %80

80:                                               ; preds = %75, %62
  br label %81

81:                                               ; preds = %80, %42
  %82 = load ptr, ptr %5, align 8
  %83 = getelementptr inbounds nuw %struct.SubPlan, ptr %82, i32 0, i32 13
  %84 = load ptr, ptr %83, align 8
  %85 = icmp eq ptr %84, null
  br i1 %85, label %86, label %98

86:                                               ; preds = %81
  %87 = load ptr, ptr %6, align 8
  %88 = getelementptr inbounds nuw %struct.Node, ptr %87, i32 0, i32 0
  %89 = load i32, ptr %88, align 4
  %90 = call zeroext i1 @ExecMaterializesOutput(i32 noundef %89)
  br i1 %90, label %91, label %98

91:                                               ; preds = %86
  %92 = load ptr, ptr %6, align 8
  %93 = getelementptr inbounds nuw %struct.Plan, ptr %92, i32 0, i32 2
  %94 = load double, ptr %93, align 8
  %95 = getelementptr inbounds nuw %struct.QualCost, ptr %7, i32 0, i32 0
  %96 = load double, ptr %95, align 8
  %97 = fadd double %96, %94
  store double %97, ptr %95, align 8
  br label %105

98:                                               ; preds = %86, %81
  %99 = load ptr, ptr %6, align 8
  %100 = getelementptr inbounds nuw %struct.Plan, ptr %99, i32 0, i32 2
  %101 = load double, ptr %100, align 8
  %102 = getelementptr inbounds nuw %struct.QualCost, ptr %7, i32 0, i32 1
  %103 = load double, ptr %102, align 8
  %104 = fadd double %103, %101
  store double %104, ptr %102, align 8
  br label %105

105:                                              ; preds = %98, %91
  call void @llvm.lifetime.end.p0(i64 8, ptr %8) #9
  br label %106

106:                                              ; preds = %105, %18
  %107 = getelementptr inbounds nuw %struct.QualCost, ptr %7, i32 0, i32 0
  %108 = load double, ptr %107, align 8
  %109 = load ptr, ptr %5, align 8
  %110 = getelementptr inbounds nuw %struct.SubPlan, ptr %109, i32 0, i32 15
  store double %108, ptr %110, align 8
  %111 = getelementptr inbounds nuw %struct.QualCost, ptr %7, i32 0, i32 1
  %112 = load double, ptr %111, align 8
  %113 = load ptr, ptr %5, align 8
  %114 = getelementptr inbounds nuw %struct.SubPlan, ptr %113, i32 0, i32 16
  store double %112, ptr %114, align 8
  call void @llvm.lifetime.end.p0(i64 16, ptr %7) #9
  ret void
}