; Function Attrs: nounwind uwtable
define dso_local void @cost_subplan(ptr noundef %0, ptr noundef captures(none) %1, ptr noundef readonly captures(none) %2) local_unnamed_addr #2 {
  %4 = alloca %struct.cost_qual_eval_context, align 8
  %5 = getelementptr inbounds nuw i8, ptr %1, i64 8
  %6 = load ptr, ptr %5, align 8
  %7 = tail call ptr @make_ands_implicit(ptr noundef %6) #17
  call void @llvm.lifetime.start.p0(i64 24, ptr nonnull %4) #17
  store ptr %0, ptr %4, align 8
  %8 = getelementptr inbounds nuw i8, ptr %4, i64 8
  %9 = getelementptr inbounds nuw i8, ptr %7, i64 4
  %.not.i = icmp eq ptr %7, null
  call void @llvm.memset.p0.i64(ptr noundef nonnull align 8 dereferenceable(16) %8, i8 0, i64 16, i1 false)
  br i1 %.not.i, label %cost_qual_eval.exit, label %.lr.ph.i

.lr.ph.i:                                         ; preds = %3
  %10 = getelementptr inbounds nuw i8, ptr %7, i64 16
  %11 = load i32, ptr %9, align 4
  %12 = icmp sgt i32 %11, 0
  br i1 %12, label %.lr.ph16.i, label %cost_qual_eval.exit

.lr.ph16.i:                                       ; preds = %.lr.ph.i, %.lr.ph16.i
  %indvars.iv.i = phi i64 [ %indvars.iv.next.i, %.lr.ph16.i ], [ 0, %.lr.ph.i ]
  %13 = load ptr, ptr %10, align 8
  %14 = getelementptr inbounds nuw %union.ListCell, ptr %13, i64 %indvars.iv.i
  %15 = load ptr, ptr %14, align 8
  %16 = call zeroext i1 @cost_qual_eval_walker(ptr noundef %15, ptr noundef nonnull %4)
  %indvars.iv.next.i = add nuw nsw i64 %indvars.iv.i, 1
  %17 = load i32, ptr %9, align 4
  %18 = sext i32 %17 to i64
  %19 = icmp slt i64 %indvars.iv.next.i, %18
  br i1 %19, label %.lr.ph16.i, label %cost_qual_eval.exit.loopexit

cost_qual_eval.exit.loopexit:                     ; preds = %.lr.ph16.i
  %.sroa.0.0.copyload.pre = load double, ptr %8, align 8
  %.sroa.8.0..sroa_idx.phi.trans.insert = getelementptr inbounds nuw i8, ptr %4, i64 16
  %.sroa.8.0.copyload.pre = load double, ptr %.sroa.8.0..sroa_idx.phi.trans.insert, align 8
  br label %cost_qual_eval.exit

cost_qual_eval.exit:                              ; preds = %cost_qual_eval.exit.loopexit, %3, %.lr.ph.i
  %.sroa.8.0.copyload = phi double [ %.sroa.8.0.copyload.pre, %cost_qual_eval.exit.loopexit ], [ 0.000000e+00, %3 ], [ 0.000000e+00, %.lr.ph.i ]
  %.sroa.0.0.copyload = phi double [ %.sroa.0.0.copyload.pre, %cost_qual_eval.exit.loopexit ], [ 0.000000e+00, %3 ], [ 0.000000e+00, %.lr.ph.i ]
  call void @llvm.lifetime.end.p0(i64 24, ptr nonnull %4) #17
  %20 = getelementptr inbounds nuw i8, ptr %1, i64 52
  %21 = load i8, ptr %20, align 4, !range !4, !noundef !5
  %22 = trunc nuw i8 %21 to i1
  %23 = getelementptr inbounds nuw i8, ptr %2, i64 16
  %24 = load double, ptr %23, align 8
  br i1 %22, label %25, label %31

25:                                               ; preds = %cost_qual_eval.exit
  %26 = load double, ptr @cpu_operator_cost, align 8
  %27 = getelementptr inbounds nuw i8, ptr %2, i64 24
  %28 = load double, ptr %27, align 8
  %29 = call double @llvm.fmuladd.f64(double %26, double %28, double %24)
  %30 = fadd double %.sroa.0.0.copyload, %29
  br label %69

31:                                               ; preds = %cost_qual_eval.exit
  %32 = getelementptr inbounds nuw i8, ptr %2, i64 8
  %33 = load double, ptr %32, align 8
  %34 = fsub double %24, %33
  %35 = getelementptr inbounds nuw i8, ptr %1, i64 4
  %36 = load i32, ptr %35, align 4
  switch i32 %36, label %55 [
    i32 0, label %37
    i32 1, label %48
    i32 2, label %48
  ]

37:                                               ; preds = %31
  %38 = getelementptr inbounds nuw i8, ptr %2, i64 24
  %39 = load double, ptr %38, align 8
  %40 = fcmp ogt double %39, 1.000000e+100
  %41 = fcmp uno double %39, 0.000000e+00
  %or.cond.i = or i1 %40, %41
  br i1 %or.cond.i, label %clamp_row_est.exit, label %42

42:                                               ; preds = %37
  %43 = fcmp ugt double %39, 1.000000e+00
  br i1 %43, label %44, label %clamp_row_est.exit

44:                                               ; preds = %42
  %45 = call double @llvm.rint.f64(double %39)
  br label %clamp_row_est.exit

clamp_row_est.exit:                               ; preds = %37, %42, %44
  %.0.i = phi double [ %45, %44 ], [ 1.000000e+100, %37 ], [ 1.000000e+00, %42 ]
  %46 = fdiv double %34, %.0.i
  %47 = fadd double %.sroa.8.0.copyload, %46
  br label %57

48:                                               ; preds = %31, %31
  %49 = call double @llvm.fmuladd.f64(double %34, double 5.000000e-01, double %.sroa.8.0.copyload)
  %50 = getelementptr inbounds nuw i8, ptr %2, i64 24
  %51 = load double, ptr %50, align 8
  %52 = fmul double %51, 5.000000e-01
  %53 = load double, ptr @cpu_operator_cost, align 8
  %54 = call double @llvm.fmuladd.f64(double %52, double %53, double %49)
  br label %57

55:                                               ; preds = %31
  %56 = fadd double %.sroa.8.0.copyload, %34
  br label %57

57:                                               ; preds = %48, %55, %clamp_row_est.exit
  %.sroa.8.1 = phi double [ %56, %55 ], [ %54, %48 ], [ %47, %clamp_row_est.exit ]
  %58 = getelementptr inbounds nuw i8, ptr %1, i64 64
  %59 = load ptr, ptr %58, align 8
  %60 = icmp eq ptr %59, null
  br i1 %60, label %61, label %66

61:                                               ; preds = %57
  %62 = load i32, ptr %2, align 4
  %63 = call zeroext i1 @ExecMaterializesOutput(i32 noundef %62) #17
  %.pre = load double, ptr %32, align 8
  br i1 %63, label %64, label %66

64:                                               ; preds = %61
  %65 = fadd double %.sroa.0.0.copyload, %.pre
  br label %69

66:                                               ; preds = %61, %57
  %67 = phi double [ %.pre, %61 ], [ %33, %57 ]
  %68 = fadd double %.sroa.8.1, %67
  br label %69

69:                                               ; preds = %64, %66, %25
  %.sroa.8.0 = phi double [ %.sroa.8.0.copyload, %25 ], [ %.sroa.8.1, %64 ], [ %68, %66 ]
  %.sroa.0.0 = phi double [ %30, %25 ], [ %65, %64 ], [ %.sroa.0.0.copyload, %66 ]
  %70 = getelementptr inbounds nuw i8, ptr %1, i64 80
  store double %.sroa.0.0, ptr %70, align 8
  %71 = getelementptr inbounds nuw i8, ptr %1, i64 88
  store double %.sroa.8.0, ptr %71, align 8
  ret void
}